target datalayout = "e-m:e-p270:32:32-p271:32:32-p272:64:64-i64:64-i128:128-f80:128-n8:16:32:64-S128"
target triple = "x86_64-pc-linux-gnu"

%struct._zval_struct = type { %union._zend_value, %union.anon, %union.anon.2 }
%union._zend_value = type { i64 }
%union.anon = type { i32 }
%union.anon.2 = type { i32 }
%struct._zend_execute_data = type { ptr, ptr, ptr, ptr, %struct._zval_struct, ptr, ptr, ptr, ptr }

; Function Attrs: nounwind uwtable
define hidden void @zim_ReturnTypeWillChange___construct(ptr noundef %0, ptr noundef %1) #0 {
  %3 = alloca ptr, align 8
  %4 = alloca ptr, align 8
  store ptr %0, ptr %3, align 8
  store ptr %1, ptr %4, align 8
  br label %5

5:                                                ; preds = %2
  %6 = load ptr, ptr %3, align 8
  %7 = getelementptr inbounds %struct._zend_execute_data, ptr %6, i32 0, i32 4
  %8 = getelementptr inbounds %struct._zval_struct, ptr %7, i32 0, i32 2
  %9 = load i32, ptr %8, align 4
  %10 = icmp ne i32 %9, 0
  %11 = xor i1 %10, true
  %12 = xor i1 %11, true
  %13 = zext i1 %12 to i32
  %14 = sext i32 %13 to i64
  %15 = icmp ne i64 %14, 0
  br i1 %15, label %16, label %17

16:                                               ; preds = %5
  call void @zend_wrong_parameters_none_error()
  br label %18

17:                                               ; preds = %5
  br label %18

18:                                               ; preds = %17, %16
  ret void
}